; Function Attrs: nounwind sspstrong uwtable
define dso_local i64 @rb_rational_raw(i64 noundef %0, i64 noundef %1) local_unnamed_addr #0 {
  %3 = and i64 %0, 1
  %.not.i = icmp eq i64 %3, 0
  br i1 %.not.i, label %4, label %rb_integer_type_p.exit.thread

4:                                                ; preds = %2
  %5 = icmp eq i64 %0, 0
  %6 = and i64 %0, 6
  %7 = icmp ne i64 %6, 0
  %8 = or i1 %5, %7
  br i1 %8, label %rb_integer_type_p.exit.thread17, label %rb_integer_type_p.exit

rb_integer_type_p.exit:                           ; preds = %4
  %9 = inttoptr i64 %0 to ptr
  %10 = load i64, ptr %9, align 8, !tbaa !7
  %11 = and i64 %10, 31
  %12 = icmp eq i64 %11, 10
  br i1 %12, label %rb_integer_type_p.exit.thread, label %rb_integer_type_p.exit.thread17

rb_integer_type_p.exit.thread17:                  ; preds = %4, %rb_integer_type_p.exit
  %13 = tail call i64 @rb_to_int(i64 noundef %0) #17
  br label %rb_integer_type_p.exit.thread

rb_integer_type_p.exit.thread:                    ; preds = %2, %rb_integer_type_p.exit.thread17, %rb_integer_type_p.exit
  %.09 = phi i64 [ %0, %rb_integer_type_p.exit ], [ %13, %rb_integer_type_p.exit.thread17 ], [ %0, %2 ]
  %14 = and i64 %1, 1
  %.not.i11 = icmp eq i64 %14, 0
  br i1 %.not.i11, label %15, label %rb_integer_type_p.exit13.thread

15:                                               ; preds = %rb_integer_type_p.exit.thread
  %16 = icmp eq i64 %1, 0
  %17 = and i64 %1, 6
  %18 = icmp ne i64 %17, 0
  %19 = or i1 %16, %18
  br i1 %19, label %rb_integer_type_p.exit13.thread20, label %rb_integer_type_p.exit13

rb_integer_type_p.exit13:                         ; preds = %15
  %20 = inttoptr i64 %1 to ptr
  %21 = load i64, ptr %20, align 8, !tbaa !7
  %22 = and i64 %21, 31
  %23 = icmp eq i64 %22, 10
  br i1 %23, label %rb_integer_type_p.exit13.thread, label %rb_integer_type_p.exit13.thread20

rb_integer_type_p.exit13.thread20:                ; preds = %15, %rb_integer_type_p.exit13
  %24 = tail call i64 @rb_to_int(i64 noundef %1) #17
  br label %rb_integer_type_p.exit13.thread

rb_integer_type_p.exit13.thread:                  ; preds = %rb_integer_type_p.exit.thread, %rb_integer_type_p.exit13.thread20, %rb_integer_type_p.exit13
  %.0 = phi i64 [ %1, %rb_integer_type_p.exit13 ], [ %24, %rb_integer_type_p.exit13.thread20 ], [ %1, %rb_integer_type_p.exit.thread ]
  %25 = and i64 %.0, 1
  %.not.i14 = icmp eq i64 %25, 0
  br i1 %.not.i14, label %INT_NEGATIVE_P.exit, label %26

26:                                               ; preds = %rb_integer_type_p.exit13.thread
  %27 = icmp slt i64 %.0, 0
  br i1 %27, label %31, label %34

INT_NEGATIVE_P.exit:                              ; preds = %rb_integer_type_p.exit13.thread
  %28 = inttoptr i64 %.0 to ptr
  %29 = load i64, ptr %28, align 8, !tbaa !7
  %30 = and i64 %29, 8192
  %.not.i.i = icmp eq i64 %30, 0
  br i1 %.not.i.i, label %31, label %34

31:                                               ; preds = %26, %INT_NEGATIVE_P.exit
  %32 = tail call i64 @rb_int_uminus(i64 noundef %.09) #17
  %33 = tail call i64 @rb_int_uminus(i64 noundef %.0) #17
  br label %34

34:                                               ; preds = %26, %31, %INT_NEGATIVE_P.exit
  %.110 = phi i64 [ %32, %31 ], [ %.09, %INT_NEGATIVE_P.exit ], [ %.09, %26 ]
  %.1 = phi i64 [ %33, %31 ], [ %.0, %INT_NEGATIVE_P.exit ], [ %.0, %26 ]
  %35 = load i64, ptr @rb_cRational, align 8, !tbaa !18
  %36 = tail call align 8 ptr @llvm.threadlocal.address.p0(ptr align 8 @ruby_current_ec)
  %37 = load ptr, ptr %36, align 8, !tbaa !25
  %38 = tail call i64 @rb_wb_protected_newobj_of(ptr noundef %37, i64 noundef %35, i64 noundef 15, i64 noundef 32) #17
  %39 = inttoptr i64 %38 to ptr
  %40 = getelementptr inbounds nuw i8, ptr %39, i64 16
  store i64 %.110, ptr %40, align 8, !tbaa !18
  %41 = icmp eq i64 %.110, 0
  %42 = and i64 %.110, 7
  %43 = icmp ne i64 %42, 0
  %44 = or i1 %41, %43
  br i1 %44, label %RATIONAL_SET_NUM.exit.i, label %45

45:                                               ; preds = %34
  tail call void @rb_gc_writebarrier(i64 noundef %38, i64 noundef %.110) #17
  br label %RATIONAL_SET_NUM.exit.i

RATIONAL_SET_NUM.exit.i:                          ; preds = %45, %34
  %46 = getelementptr inbounds nuw i8, ptr %39, i64 24
  store i64 %.1, ptr %46, align 8, !tbaa !18
  %47 = icmp eq i64 %.1, 0
  %48 = and i64 %.1, 7
  %49 = icmp ne i64 %48, 0
  %50 = or i1 %47, %49
  br i1 %50, label %nurat_s_new_internal.exit, label %51

51:                                               ; preds = %RATIONAL_SET_NUM.exit.i
  tail call void @rb_gc_writebarrier(i64 noundef %38, i64 noundef %.1) #17
  br label %nurat_s_new_internal.exit

nurat_s_new_internal.exit:                        ; preds = %RATIONAL_SET_NUM.exit.i, %51
  tail call void @rb_obj_freeze_inline(i64 noundef %38) #17
  ret i64 %38
}